; Function Attrs: mustprogress nofree norecurse nosync nounwind willreturn memory(read, inaccessiblemem: none) uwtable
define internal range(i32 -1, 2) i32 @cookie_sort_ct(ptr noundef readonly captures(none) %0, ptr noundef readonly captures(none) %1) #9 {
  %3 = load ptr, ptr %0, align 8, !tbaa !120
  %4 = load ptr, ptr %1, align 8, !tbaa !120
  %5 = getelementptr inbounds nuw i8, ptr %4, i64 112
  %6 = load i32, ptr %5, align 8, !tbaa !111
  %7 = getelementptr inbounds nuw i8, ptr %3, i64 112
  %8 = load i32, ptr %7, align 8, !tbaa !111
  %9 = icmp ugt i32 %6, %8
  %10 = select i1 %9, i32 1, i32 -1
  ret i32 %10
}